; Function Attrs: nounwind uwtable
define void @Bac_NtkCreateAndConnectBuffer(ptr noundef readonly %0, ptr noundef %1, ptr noundef captures(none) %2, i32 noundef %3) local_unnamed_addr #0 {
  %.not = icmp eq ptr %0, null
  br i1 %.not, label %.critedge, label %5

5:                                                ; preds = %4
  %6 = getelementptr i8, ptr %0, i64 32
  %.val = load ptr, ptr %6, align 8
  %7 = ptrtoint ptr %1 to i64
  %8 = ptrtoint ptr %.val to i64
  %9 = sub i64 %7, %8
  %10 = sdiv exact i64 %9, 12
  %11 = trunc i64 %10 to i32
  %.val3.i = load i64, ptr %1, align 4
  %12 = trunc i64 %.val3.i to i32
  %13 = and i32 %12, 536870911
  %14 = icmp slt i32 %13, %11
  br i1 %14, label %15, label %23

15:                                               ; preds = %5
  %16 = and i64 %.val3.i, 536870911
  %17 = sub nsw i64 0, %16
  %18 = getelementptr inbounds %struct.Gia_Obj_t_, ptr %1, i64 %17, i32 1
  %19 = load i32, ptr %18, align 4
  %20 = tail call fastcc i32 @Bac_ObjAlloc(ptr noundef %2, i32 noundef 3, i32 noundef %19)
  %.val15 = load i64, ptr %1, align 4
  %21 = and i64 %.val15, 536870912
  %.not14 = icmp eq i64 %21, 0
  %22 = select i1 %.not14, i32 10, i32 11
  br label %.critedge

23:                                               ; preds = %5
  %24 = and i32 %12, 536870912
  %.not13 = icmp eq i32 %24, 0
  %25 = select i1 %.not13, i32 6, i32 7
  br label %.critedge

.critedge:                                        ; preds = %23, %4, %15
  %.sink = phi i32 [ %22, %15 ], [ %25, %23 ], [ 6, %4 ]
  %26 = tail call fastcc i32 @Bac_ObjAlloc(ptr noundef %2, i32 noundef %.sink, i32 noundef -1)
  %27 = tail call fastcc i32 @Bac_ObjAlloc(ptr noundef %2, i32 noundef 4, i32 noundef -1)
  %28 = getelementptr inbounds nuw i8, ptr %2, i64 96
  %29 = add nsw i32 %3, 1
  tail call fastcc void @Vec_IntFillExtra(ptr noundef nonnull %28, i32 noundef %29, i32 noundef 0)
  %30 = getelementptr i8, ptr %2, i64 104
  %.val.i.i = load ptr, ptr %30, align 8
  %31 = sext i32 %3 to i64
  %32 = getelementptr inbounds i32, ptr %.val.i.i, i64 %31
  store i32 %27, ptr %32, align 4
  ret void
}